; Function Attrs: nounwind uwtable
define void @Java_java_awt_image_Kernel_initIDs(ptr noundef %0, ptr noundef %1) local_unnamed_addr #0 {
  %3 = load ptr, ptr %0, align 8
  %4 = getelementptr inbounds i8, ptr %3, i64 752
  %5 = load ptr, ptr %4, align 8
  %6 = tail call ptr %5(ptr noundef nonnull %0, ptr noundef %1, ptr noundef nonnull @.str.10, ptr noundef nonnull @.str.3) #1
  store ptr %6, ptr @g_KernelWidthID, align 8
  %7 = icmp eq ptr %6, null
  br i1 %7, label %19, label %8

8:                                                ; preds = %2
  %9 = load ptr, ptr %0, align 8
  %10 = getelementptr inbounds i8, ptr %9, i64 752
  %11 = load ptr, ptr %10, align 8
  %12 = tail call ptr %11(ptr noundef nonnull %0, ptr noundef %1, ptr noundef nonnull @.str.11, ptr noundef nonnull @.str.3) #1
  store ptr %12, ptr @g_KernelHeightID, align 8
  %13 = icmp eq ptr %12, null
  br i1 %13, label %19, label %14

14:                                               ; preds = %8
  %15 = load ptr, ptr %0, align 8
  %16 = getelementptr inbounds i8, ptr %15, i64 752
  %17 = load ptr, ptr %16, align 8
  %18 = tail call ptr %17(ptr noundef nonnull %0, ptr noundef %1, ptr noundef nonnull @.str.22, ptr noundef nonnull @.str.55) #1
  store ptr %18, ptr @g_KernelDataID, align 8
  br label %19

19:                                               ; preds = %14, %8, %2
  ret void
}